target datalayout = "e-m:e-p270:32:32-p271:32:32-p272:64:64-i64:64-i128:128-f80:128-n8:16:32:64-S128"
target triple = "x86_64-pc-linux-gnu"

@.str.14 = private unnamed_addr constant [33 x i8] c"../openssl/test/quicfaultstest.c\00", align 1
@cert = internal global ptr null, align 8
@privkey = internal global ptr null, align 8
@.str.24 = private unnamed_addr constant [5 x i8] c"cctx\00", align 1
@.str.26 = private unnamed_addr constant [43 x i8] c"qtest_create_quic_connection(qtserv, cssl)\00", align 1
@.str.32 = private unnamed_addr constant [92 x i8] c"qtest_create_quic_objects(NULL, cctx, NULL, cert, privkey, 0, &qtserv, &cssl, &fault, NULL)\00", align 1
@.str.47 = private unnamed_addr constant [71 x i8] c"qtest_fault_set_hand_enc_ext_listener(fault, drop_extensions_cb, &ext)\00", align 1
@.str.48 = private unnamed_addr constant [46 x i8] c"qtest_check_server_transport_err(qtserv, err)\00", align 1

; Function Attrs: nounwind uwtable
define internal i32 @test_drop_extensions(i32 noundef %0) #0 {
  %2 = alloca i32, align 4
  %3 = alloca i32, align 4
  %4 = alloca ptr, align 8
  %5 = alloca ptr, align 8
  %6 = alloca ptr, align 8
  %7 = alloca ptr, align 8
  %8 = alloca i32, align 4
  %9 = alloca i32, align 4
  store i32 %0, ptr %2, align 4, !tbaa !9
  call void @llvm.lifetime.start.p0(i64 4, ptr %3) #6
  store i32 0, ptr %3, align 4, !tbaa !9
  call void @llvm.lifetime.start.p0(i64 8, ptr %4) #6
  %10 = call ptr @OSSL_QUIC_client_method()
  %11 = call ptr @SSL_CTX_new(ptr noundef %10)
  store ptr %11, ptr %4, align 8, !tbaa !11
  call void @llvm.lifetime.start.p0(i64 8, ptr %5) #6
  store ptr null, ptr %5, align 8, !tbaa !13
  call void @llvm.lifetime.start.p0(i64 8, ptr %6) #6
  store ptr null, ptr %6, align 8, !tbaa !15
  call void @llvm.lifetime.start.p0(i64 8, ptr %7) #6
  store ptr null, ptr %7, align 8, !tbaa !19
  call void @llvm.lifetime.start.p0(i64 4, ptr %8) #6
  call void @llvm.lifetime.start.p0(i64 4, ptr %9) #6
  %12 = load ptr, ptr %4, align 8, !tbaa !11
  %13 = call i32 @test_ptr(ptr noundef @.str.14, i32 noundef 186, ptr noundef @.str.24, ptr noundef %12)
  %14 = icmp ne i32 %13, 0
  br i1 %14, label %16, label %15

15:                                               ; preds = %1
  br label %59

16:                                               ; preds = %1
  %17 = load ptr, ptr %4, align 8, !tbaa !11
  %18 = load ptr, ptr @cert, align 8, !tbaa !4
  %19 = load ptr, ptr @privkey, align 8, !tbaa !4
  %20 = call i32 @qtest_create_quic_objects(ptr noundef null, ptr noundef %17, ptr noundef null, ptr noundef %18, ptr noundef %19, i32 noundef 0, ptr noundef %5, ptr noundef %6, ptr noundef %7, ptr noundef null)
  %21 = icmp ne i32 %20, 0
  %22 = zext i1 %21 to i32
  %23 = call i32 @test_true(ptr noundef @.str.14, i32 noundef 190, ptr noundef @.str.32, i32 noundef %22)
  %24 = icmp ne i32 %23, 0
  br i1 %24, label %26, label %25

25:                                               ; preds = %16
  br label %59

26:                                               ; preds = %16
  %27 = load i32, ptr %2, align 4, !tbaa !9
  %28 = icmp eq i32 %27, 0
  br i1 %28, label %29, label %30

29:                                               ; preds = %26
  store i32 57, ptr %8, align 4, !tbaa !9
  store i32 365, ptr %9, align 4, !tbaa !9
  br label %31

30:                                               ; preds = %26
  store i32 16, ptr %8, align 4, !tbaa !9
  store i32 376, ptr %9, align 4, !tbaa !9
  br label %31

31:                                               ; preds = %30, %29
  %32 = load ptr, ptr %7, align 8, !tbaa !19
  %33 = call i32 @qtest_fault_set_hand_enc_ext_listener(ptr noundef %32, ptr noundef @drop_extensions_cb, ptr noundef %8)
  %34 = icmp ne i32 %33, 0
  %35 = zext i1 %34 to i32
  %36 = call i32 @test_true(ptr noundef @.str.14, i32 noundef 203, ptr noundef @.str.47, i32 noundef %35)
  %37 = icmp ne i32 %36, 0
  br i1 %37, label %39, label %38

38:                                               ; preds = %31
  br label %59

39:                                               ; preds = %31
  %40 = load ptr, ptr %5, align 8, !tbaa !13
  %41 = load ptr, ptr %6, align 8, !tbaa !15
  %42 = call i32 @qtest_create_quic_connection(ptr noundef %40, ptr noundef %41)
  %43 = icmp ne i32 %42, 0
  %44 = zext i1 %43 to i32
  %45 = call i32 @test_false(ptr noundef @.str.14, i32 noundef 210, ptr noundef @.str.26, i32 noundef %44)
  %46 = icmp ne i32 %45, 0
  br i1 %46, label %48, label %47

47:                                               ; preds = %39
  br label %59

48:                                               ; preds = %39
  %49 = load ptr, ptr %5, align 8, !tbaa !13
  %50 = load i32, ptr %9, align 4, !tbaa !9
  %51 = sext i32 %50 to i64
  %52 = call i32 @qtest_check_server_transport_err(ptr noundef %49, i64 noundef %51)
  %53 = icmp ne i32 %52, 0
  %54 = zext i1 %53 to i32
  %55 = call i32 @test_true(ptr noundef @.str.14, i32 noundef 213, ptr noundef @.str.48, i32 noundef %54)
  %56 = icmp ne i32 %55, 0
  br i1 %56, label %58, label %57

57:                                               ; preds = %48
  br label %59

58:                                               ; preds = %48
  store i32 1, ptr %3, align 4, !tbaa !9
  br label %59

59:                                               ; preds = %58, %57, %47, %38, %25, %15
  %60 = load ptr, ptr %7, align 8, !tbaa !19
  call void @qtest_fault_free(ptr noundef %60)
  %61 = load ptr, ptr %6, align 8, !tbaa !15
  call void @SSL_free(ptr noundef %61)
  %62 = load ptr, ptr %5, align 8, !tbaa !13
  call void @ossl_quic_tserver_free(ptr noundef %62)
  %63 = load ptr, ptr %4, align 8, !tbaa !11
  call void @SSL_CTX_free(ptr noundef %63)
  %64 = load i32, ptr %3, align 4, !tbaa !9
  call void @llvm.lifetime.end.p0(i64 4, ptr %9) #6
  call void @llvm.lifetime.end.p0(i64 4, ptr %8) #6
  call void @llvm.lifetime.end.p0(i64 8, ptr %7) #6
  call void @llvm.lifetime.end.p0(i64 8, ptr %6) #6
  call void @llvm.lifetime.end.p0(i64 8, ptr %5) #6
  call void @llvm.lifetime.end.p0(i64 8, ptr %4) #6
  call void @llvm.lifetime.end.p0(i64 4, ptr %3) #6
  ret i32 %64
}