; Function Attrs: nounwind uwtable
define internal range(i32 0, 2) i32 @test_drop_extensions(i32 noundef %0) #1 {
  %2 = alloca ptr, align 8
  %3 = alloca ptr, align 8
  %4 = alloca ptr, align 8
  %5 = alloca i32, align 4
  %6 = tail call ptr @OSSL_QUIC_client_method() #4
  %7 = tail call ptr @SSL_CTX_new(ptr noundef %6) #4
  call void @llvm.lifetime.start.p0(i64 8, ptr nonnull %2) #4
  store ptr null, ptr %2, align 8, !tbaa !9
  call void @llvm.lifetime.start.p0(i64 8, ptr nonnull %3) #4
  store ptr null, ptr %3, align 8, !tbaa !11
  call void @llvm.lifetime.start.p0(i64 8, ptr nonnull %4) #4
  store ptr null, ptr %4, align 8, !tbaa !15
  call void @llvm.lifetime.start.p0(i64 4, ptr nonnull %5) #4
  %8 = tail call i32 @test_ptr(ptr noundef nonnull @.str.14, i32 noundef 186, ptr noundef nonnull @.str.24, ptr noundef %7) #4
  %.not = icmp eq i32 %8, 0
  br i1 %.not, label %36, label %9

9:                                                ; preds = %1
  %10 = load ptr, ptr @cert, align 8, !tbaa !4
  %11 = load ptr, ptr @privkey, align 8, !tbaa !4
  %12 = call i32 @qtest_create_quic_objects(ptr noundef null, ptr noundef %7, ptr noundef null, ptr noundef %10, ptr noundef %11, i32 noundef 0, ptr noundef nonnull %2, ptr noundef nonnull %3, ptr noundef nonnull %4, ptr noundef null) #4
  %13 = icmp ne i32 %12, 0
  %14 = zext i1 %13 to i32
  %15 = call i32 @test_true(ptr noundef nonnull @.str.14, i32 noundef 190, ptr noundef nonnull @.str.32, i32 noundef %14) #4
  %.not6 = icmp eq i32 %15, 0
  br i1 %.not6, label %36, label %16

16:                                               ; preds = %9
  %17 = icmp eq i32 %0, 0
  %. = select i1 %17, i32 57, i32 16
  %.10 = select i1 %17, i64 365, i64 376
  store i32 %., ptr %5, align 4, !tbaa !17
  %18 = load ptr, ptr %4, align 8, !tbaa !15
  %19 = call i32 @qtest_fault_set_hand_enc_ext_listener(ptr noundef %18, ptr noundef nonnull @drop_extensions_cb, ptr noundef nonnull %5) #4
  %20 = icmp ne i32 %19, 0
  %21 = zext i1 %20 to i32
  %22 = call i32 @test_true(ptr noundef nonnull @.str.14, i32 noundef 203, ptr noundef nonnull @.str.47, i32 noundef %21) #4
  %.not7 = icmp eq i32 %22, 0
  br i1 %.not7, label %36, label %23

23:                                               ; preds = %16
  %24 = load ptr, ptr %2, align 8, !tbaa !9
  %25 = load ptr, ptr %3, align 8, !tbaa !11
  %26 = call i32 @qtest_create_quic_connection(ptr noundef %24, ptr noundef %25) #4
  %27 = icmp ne i32 %26, 0
  %28 = zext i1 %27 to i32
  %29 = call i32 @test_false(ptr noundef nonnull @.str.14, i32 noundef 210, ptr noundef nonnull @.str.26, i32 noundef %28) #4
  %.not8 = icmp eq i32 %29, 0
  br i1 %.not8, label %36, label %30

30:                                               ; preds = %23
  %31 = load ptr, ptr %2, align 8, !tbaa !9
  %32 = call i32 @qtest_check_server_transport_err(ptr noundef %31, i64 noundef %.10) #4
  %33 = icmp ne i32 %32, 0
  %34 = zext i1 %33 to i32
  %35 = call i32 @test_true(ptr noundef nonnull @.str.14, i32 noundef 213, ptr noundef nonnull @.str.48, i32 noundef %34) #4
  %.not9 = icmp ne i32 %35, 0
  %spec.select = zext i1 %.not9 to i32
  br label %36

36:                                               ; preds = %30, %23, %16, %9, %1
  %.05 = phi i32 [ 0, %23 ], [ 0, %16 ], [ 0, %9 ], [ 0, %1 ], [ %spec.select, %30 ]
  %37 = load ptr, ptr %4, align 8, !tbaa !15
  call void @qtest_fault_free(ptr noundef %37) #4
  %38 = load ptr, ptr %3, align 8, !tbaa !11
  call void @SSL_free(ptr noundef %38) #4
  %39 = load ptr, ptr %2, align 8, !tbaa !9
  call void @ossl_quic_tserver_free(ptr noundef %39) #4
  call void @SSL_CTX_free(ptr noundef %7) #4
  call void @llvm.lifetime.end.p0(i64 4, ptr nonnull %5) #4
  call void @llvm.lifetime.end.p0(i64 8, ptr nonnull %4) #4
  call void @llvm.lifetime.end.p0(i64 8, ptr nonnull %3) #4
  call void @llvm.lifetime.end.p0(i64 8, ptr nonnull %2) #4
  ret i32 %.05
}